Certificate:
    Data:
        Version: 3 (0x2)
        Serial Number: 270 (0x10e)
        Signature Algorithm: sha1WithRSAEncryption
        Issuer: C=US, ST=Maryland, L=Columbia, O=RTSAIC, CN=*.gateway.aws-dev.rtsaic.com
        Validity
            Not Before: Nov 16 19:18:21 2012 GMT
            Not After : Nov 16 19:18:21 2013 GMT
        Subject: CN=ingest-all-node1.dnsTestSystem.rtsaic.com/emailAddress=dev@rtsaic.com
        Subject Public Key Info:
            Public Key Algorithm: rsaEncryption
            RSA Public Key: (2048 bit)
                Modulus (2048 bit):
                    00:b9:86:36:87:14:56:b4:96:fb:a0:75:e9:eb:a7:
                    d6:a1:70:3a:77:75:64:f0:5f:d4:19:76:cf:da:57:
                    59:80:b0:12:d9:ed:3b:b8:8d:bf:50:a4:f9:fa:0f:
                    ec:af:37:8d:c5:4c:44:5f:70:37:7f:74:5f:70:41:
                    b7:ed:39:8b:a6:7e:f2:72:d2:3e:9b:ba:1c:8c:f0:
                    7a:e4:43:17:44:7c:f7:63:8c:38:fb:13:72:7e:61:
                    b4:73:4c:8d:06:af:d6:07:eb:94:25:d4:1d:62:bd:
                    12:c7:88:0e:c1:94:91:9a:90:dd:5e:73:32:f5:aa:
                    d0:ac:16:c7:f3:36:19:b3:d3:b9:69:36:5b:7a:ec:
                    ac:68:4b:c6:31:7e:8a:cf:cc:b8:cd:e9:ff:94:e7:
                    21:d6:1c:fd:9d:5a:c1:17:e0:1c:5e:48:be:72:67:
                    5e:cc:f9:24:69:68:8d:d5:fe:0b:8f:7a:e1:87:cd:
                    3d:bb:0b:45:17:d3:dc:49:6a:e8:78:3b:dc:9f:ac:
                    18:5c:13:0e:9b:77:89:b7:ac:d6:dc:fc:84:9d:57:
                    ae:5e:bf:ae:b9:d9:28:d8:75:20:f3:97:a7:74:70:
                    63:c5:e3:cc:8f:85:ee:8d:db:e7:49:a3:db:ac:36:
                    4a:95:9e:a0:f4:92:e0:6f:ff:19:9f:02:45:65:cc:
                    5e:6f
                Exponent: 65537 (0x10001)
        X509v3 extensions:
            X509v3 Basic Constraints: 
                CA:FALSE
            Netscape Comment: 
                OpenSSL Generated Certificate
            X509v3 Subject Key Identifier: 
                FE:D9:B1:E1:A0:4A:A1:79:E4:A9:C0:68:F6:AC:A6:87:50:AF:46:D2
            X509v3 Authority Key Identifier: 
                keyid:F3:E8:45:E0:F9:1B:A2:12:06:AA:0E:25:4A:09:EC:0D:BA:07:D4:69

    Signature Algorithm: sha1WithRSAEncryption
        b2:48:40:df:8b:63:ea:e9:89:0e:b9:01:cb:4f:0e:fa:99:71:
        1b:f2:d3:3c:db:78:79:e2:f5:4f:4f:aa:69:75:3b:1b:75:31:
        60:e6:e1:3f:ec:6d:bb:2a:3e:e1:31:0f:aa:2d:1d:88:fc:97:
        5d:d1:60:92:5d:bd:a8:01:65:8c:c1:4f:10:16:db:6f:ec:1b:
        6e:f5:7a:3f:ae:8e:87:e1:b7:af:6e:19:be:f9:58:5c:7c:ec:
        81:de:b2:92:d5:1a:97:4a:c6:6a:3c:8d:8a:72:b9:c6:c7:c2:
        56:b0:78:48:da:aa:87:b8:ee:0d:db:25:4d:4d:ce:e1:9f:f3:
        be:88
-----BEGIN CERTIFICATE-----
MIIDNDCCAp2gAwIBAgICAQ4wDQYJKoZIhvcNAQEFBQAwazELMAkGA1UEBhMCVVMx
ETAPBgNVBAgTCE1hcnlsYW5kMREwDwYDVQQHEwhDb2x1bWJpYTEPMA0GA1UEChMG
UlRTQUlDMSUwIwYDVQQDFBwqLmdhdGV3YXkuYXdzLWRldi5ydHNhaWMuY29tMB4X
DTEyMTExNjE5MTgyMVoXDTEzMTExNjE5MTgyMVowUzEyMDAGA1UEAxMpaW5nZXN0
LWFsbC1ub2RlMS5kbnNUZXN0U3lzdGVtLnJ0c2FpYy5jb20xHTAbBgkqhkiG9w0B
CQEWDmRldkBydHNhaWMuY29tMIIBIjANBgkqhkiG9w0BAQEFAAOCAQ8AMIIBCgKC
AQEAuYY2hxRWtJb7oHXp66fWoXA6d3Vk8F/UGXbP2ldZgLAS2e07uI2/UKT5+g/s
rzeNxUxEX3A3f3RfcEG37TmLpn7yctI+m7ocjPB65EMXRHz3Y4w4+xNyfmG0c0yN
Bq/WB+uUJdQdYr0Sx4gOwZSRmpDdXnMy9arQrBbH8zYZs9O5aTZbeuysaEvGMX6K
z8y4zen/lOch1hz9nVrBF+AcXki+cmdezPkkaWiN1f4Lj3rhh809uwtFF9PcSWro
eDvcn6wYXBMOm3eJt6zW3PyEnVeuXr+uudko2HUg85endHBjxePMj4XujdvnSaPb
rDZKlZ6g9JLgb/8ZnwJFZcxebwIDAQABo3sweTAJBgNVHRMEAjAAMCwGCWCGSAGG
+EIBDQQfFh1PcGVuU1NMIEdlbmVyYXRlZCBDZXJ0aWZpY2F0ZTAdBgNVHQ4EFgQU
/tmx4aBKoXnkqcBo9qymh1CvRtIwHwYDVR0jBBgwFoAU8+hF4PkbohIGqg4lSgns
DboH1GkwDQYJKoZIhvcNAQEFBQADgYEAskhA34tj6umJDrkBy08O+plxG/LTPNt4
eeL1T0+qaXU7G3UxYObhP+xtuyo+4TEPqi0diPyXXdFgkl29qAFljMFPEBbbb+wb
bvV6P66Oh+G3r24ZvvlYXHzsgd6yktUal0rGajyNinK5xsfCVrB4SNqqh7juDdsl
TU3O4Z/zvog=
-----END CERTIFICATE-----
